; Function Attrs: cold nounwind optsize uwtable
define internal noundef i32 @decode_close_mp3on4(ptr noundef readonly captures(none) %0) #0 {
  %2 = getelementptr inbounds nuw i8, ptr %0, i64 32
  %3 = load ptr, ptr %2, align 8, !tbaa !4
  %4 = load i32, ptr %3, align 8, !tbaa !66
  %5 = icmp sgt i32 %4, 0
  br i1 %5, label %.lr.ph, label %._crit_edge

.lr.ph:                                           ; preds = %1
  %6 = getelementptr inbounds nuw i8, ptr %3, i64 16
  br label %7

7:                                                ; preds = %.lr.ph, %7
  %indvars.iv = phi i64 [ 0, %.lr.ph ], [ %indvars.iv.next, %7 ]
  %8 = getelementptr inbounds nuw [5 x ptr], ptr %6, i64 0, i64 %indvars.iv
  tail call void @av_freep(ptr noundef nonnull %8) #14
  %indvars.iv.next = add nuw nsw i64 %indvars.iv, 1
  %9 = load i32, ptr %3, align 8, !tbaa !66
  %10 = sext i32 %9 to i64
  %11 = icmp slt i64 %indvars.iv.next, %10
  br i1 %11, label %7, label %._crit_edge, !llvm.loop !82

._crit_edge:                                      ; preds = %7, %1
  ret i32 0
}